target datalayout = "e-m:e-p270:32:32-p271:32:32-p272:64:64-i64:64-i128:128-f80:128-n8:16:32:64-S128"
target triple = "x86_64-pc-linux-gnu"

%"class.glslang::TParseVersions" = type { ptr, i8, i32, ptr, i32, i32, %"struct.glslang::SpvVersion", ptr, %"class.glslang::TMap", %"class.glslang::TMap.0", %"class.glslang::TVector", i32, i32, ptr }
%"struct.glslang::SpvVersion" = type <{ i32, i32, i32, i32, i8, [3 x i8] }>
%"class.glslang::TMap" = type { %"class.std::map" }
%"class.std::map" = type { %"class.std::_Rb_tree" }
%"class.std::_Rb_tree" = type { %"struct.std::_Rb_tree<std::__cxx11::basic_string<char, std::char_traits<char>, glslang::pool_allocator<char>>, std::pair<const std::__cxx11::basic_string<char, std::char_traits<char>, glslang::pool_allocator<char>>, glslang::TExtensionBehavior>, std::_Select1st<std::pair<const std::__cxx11::basic_string<char, std::char_traits<char>, glslang::pool_allocator<char>>, glslang::TExtensionBehavior>>, std::less<std::__cxx11::basic_string<char, std::char_traits<char>, glslang::pool_allocator<char>>>, glslang::pool_allocator<std::pair<const std::__cxx11::basic_string<char, std::char_traits<char>, glslang::pool_allocator<char>>, glslang::TExtensionBehavior>>>::_Rb_tree_impl" }
%"struct.std::_Rb_tree<std::__cxx11::basic_string<char, std::char_traits<char>, glslang::pool_allocator<char>>, std::pair<const std::__cxx11::basic_string<char, std::char_traits<char>, glslang::pool_allocator<char>>, glslang::TExtensionBehavior>, std::_Select1st<std::pair<const std::__cxx11::basic_string<char, std::char_traits<char>, glslang::pool_allocator<char>>, glslang::TExtensionBehavior>>, std::less<std::__cxx11::basic_string<char, std::char_traits<char>, glslang::pool_allocator<char>>>, glslang::pool_allocator<std::pair<const std::__cxx11::basic_string<char, std::char_traits<char>, glslang::pool_allocator<char>>, glslang::TExtensionBehavior>>>::_Rb_tree_impl" = type { %"class.glslang::pool_allocator", %"struct.std::_Rb_tree_key_compare", %"struct.std::_Rb_tree_header" }
%"class.glslang::pool_allocator" = type { ptr }
%"struct.std::_Rb_tree_key_compare" = type { %"struct.std::less" }
%"struct.std::less" = type { i8 }
%"struct.std::_Rb_tree_header" = type { %"struct.std::_Rb_tree_node_base", i64 }
%"struct.std::_Rb_tree_node_base" = type { i32, ptr, ptr, ptr }
%"class.glslang::TMap.0" = type { %"class.std::map.1" }
%"class.std::map.1" = type { %"class.std::_Rb_tree.2" }
%"class.std::_Rb_tree.2" = type { %"struct.std::_Rb_tree<std::__cxx11::basic_string<char, std::char_traits<char>, glslang::pool_allocator<char>>, std::pair<const std::__cxx11::basic_string<char, std::char_traits<char>, glslang::pool_allocator<char>>, unsigned int>, std::_Select1st<std::pair<const std::__cxx11::basic_string<char, std::char_traits<char>, glslang::pool_allocator<char>>, unsigned int>>, std::less<std::__cxx11::basic_string<char, std::char_traits<char>, glslang::pool_allocator<char>>>, glslang::pool_allocator<std::pair<const std::__cxx11::basic_string<char, std::char_traits<char>, glslang::pool_allocator<char>>, unsigned int>>>::_Rb_tree_impl" }
%"struct.std::_Rb_tree<std::__cxx11::basic_string<char, std::char_traits<char>, glslang::pool_allocator<char>>, std::pair<const std::__cxx11::basic_string<char, std::char_traits<char>, glslang::pool_allocator<char>>, unsigned int>, std::_Select1st<std::pair<const std::__cxx11::basic_string<char, std::char_traits<char>, glslang::pool_allocator<char>>, unsigned int>>, std::less<std::__cxx11::basic_string<char, std::char_traits<char>, glslang::pool_allocator<char>>>, glslang::pool_allocator<std::pair<const std::__cxx11::basic_string<char, std::char_traits<char>, glslang::pool_allocator<char>>, unsigned int>>>::_Rb_tree_impl" = type { %"class.glslang::pool_allocator.3", %"struct.std::_Rb_tree_key_compare", %"struct.std::_Rb_tree_header" }
%"class.glslang::pool_allocator.3" = type { ptr }
%"class.glslang::TVector" = type { %"class.std::vector" }
%"class.std::vector" = type { %"struct.std::_Vector_base" }
%"struct.std::_Vector_base" = type { %"struct.std::_Vector_base<std::__cxx11::basic_string<char, std::char_traits<char>, glslang::pool_allocator<char>>, glslang::pool_allocator<std::__cxx11::basic_string<char, std::char_traits<char>, glslang::pool_allocator<char>>>>::_Vector_impl" }
%"struct.std::_Vector_base<std::__cxx11::basic_string<char, std::char_traits<char>, glslang::pool_allocator<char>>, glslang::pool_allocator<std::__cxx11::basic_string<char, std::char_traits<char>, glslang::pool_allocator<char>>>>::_Vector_impl" = type { %"class.glslang::pool_allocator.4", %"struct.std::_Vector_base<std::__cxx11::basic_string<char, std::char_traits<char>, glslang::pool_allocator<char>>, glslang::pool_allocator<std::__cxx11::basic_string<char, std::char_traits<char>, glslang::pool_allocator<char>>>>::_Vector_impl_data" }
%"class.glslang::pool_allocator.4" = type { ptr }
%"struct.std::_Vector_base<std::__cxx11::basic_string<char, std::char_traits<char>, glslang::pool_allocator<char>>, glslang::pool_allocator<std::__cxx11::basic_string<char, std::char_traits<char>, glslang::pool_allocator<char>>>>::_Vector_impl_data" = type { ptr, ptr, ptr }

@.str.220 = private unnamed_addr constant [7 x i8] c"vertex\00", align 1
@.str.221 = private unnamed_addr constant [9 x i8] c"fragment\00", align 1
@.str.222 = private unnamed_addr constant [8 x i8] c"compute\00", align 1
@.str.223 = private unnamed_addr constant [21 x i8] c"tessellation control\00", align 1
@.str.224 = private unnamed_addr constant [24 x i8] c"tessellation evaluation\00", align 1
@.str.225 = private unnamed_addr constant [9 x i8] c"geometry\00", align 1
@.str.226 = private unnamed_addr constant [15 x i8] c"ray-generation\00", align 1
@.str.227 = private unnamed_addr constant [13 x i8] c"intersection\00", align 1
@.str.228 = private unnamed_addr constant [8 x i8] c"any-hit\00", align 1
@.str.229 = private unnamed_addr constant [12 x i8] c"closest-hit\00", align 1
@.str.230 = private unnamed_addr constant [5 x i8] c"miss\00", align 1
@.str.231 = private unnamed_addr constant [9 x i8] c"callable\00", align 1
@.str.232 = private unnamed_addr constant [5 x i8] c"mesh\00", align 1
@.str.233 = private unnamed_addr constant [5 x i8] c"task\00", align 1
@.str.234 = private unnamed_addr constant [14 x i8] c"unknown stage\00", align 1
@.str.235 = private unnamed_addr constant [29 x i8] c"not supported in this stage:\00", align 1

; Function Attrs: mustprogress nounwind uwtable
define ptr @StageName(i32 noundef %0) #0 {
  %2 = alloca ptr, align 8
  %3 = alloca i32, align 4
  store i32 %0, ptr %3, align 4
  %4 = load i32, ptr %3, align 4
  switch i32 %4, label %19 [
    i32 0, label %5
    i32 4, label %6
    i32 5, label %7
    i32 1, label %8
    i32 2, label %9
    i32 3, label %10
    i32 6, label %11
    i32 7, label %12
    i32 8, label %13
    i32 9, label %14
    i32 10, label %15
    i32 11, label %16
    i32 13, label %17
    i32 12, label %18
  ]

5:                                                ; preds = %1
  store ptr @.str.220, ptr %2, align 8
  br label %20

6:                                                ; preds = %1
  store ptr @.str.221, ptr %2, align 8
  br label %20

7:                                                ; preds = %1
  store ptr @.str.222, ptr %2, align 8
  br label %20

8:                                                ; preds = %1
  store ptr @.str.223, ptr %2, align 8
  br label %20

9:                                                ; preds = %1
  store ptr @.str.224, ptr %2, align 8
  br label %20

10:                                               ; preds = %1
  store ptr @.str.225, ptr %2, align 8
  br label %20

11:                                               ; preds = %1
  store ptr @.str.226, ptr %2, align 8
  br label %20

12:                                               ; preds = %1
  store ptr @.str.227, ptr %2, align 8
  br label %20

13:                                               ; preds = %1
  store ptr @.str.228, ptr %2, align 8
  br label %20

14:                                               ; preds = %1
  store ptr @.str.229, ptr %2, align 8
  br label %20

15:                                               ; preds = %1
  store ptr @.str.230, ptr %2, align 8
  br label %20

16:                                               ; preds = %1
  store ptr @.str.231, ptr %2, align 8
  br label %20

17:                                               ; preds = %1
  store ptr @.str.232, ptr %2, align 8
  br label %20

18:                                               ; preds = %1
  store ptr @.str.233, ptr %2, align 8
  br label %20

19:                                               ; preds = %1
  store ptr @.str.234, ptr %2, align 8
  br label %20

20:                                               ; preds = %19, %18, %17, %16, %15, %14, %13, %12, %11, %10, %9, %8, %7, %6, %5
  %21 = load ptr, ptr %2, align 8
  ret ptr %21
}

; Function Attrs: mustprogress nounwind uwtable
define void @_ZN7glslang14TParseVersions12requireStageERKNS_10TSourceLocE15EShLanguageMaskPKc(ptr noundef nonnull align 8 dereferenceable(224) %0, ptr noundef nonnull align 8 dereferenceable(24) %1, i32 noundef %2, ptr noundef %3) #0 align 2 {
  %5 = alloca ptr, align 8
  %6 = alloca ptr, align 8
  %7 = alloca i32, align 4
  %8 = alloca ptr, align 8
  store ptr %0, ptr %5, align 8
  store ptr %1, ptr %6, align 8
  store i32 %2, ptr %7, align 4
  store ptr %3, ptr %8, align 8
  %9 = load ptr, ptr %5, align 8
  %10 = getelementptr inbounds %"class.glslang::TParseVersions", ptr %9, i32 0, i32 5
  %11 = load i32, ptr %10, align 4
  %12 = shl i32 1, %11
  %13 = load i32, ptr %7, align 4
  %14 = and i32 %12, %13
  %15 = icmp eq i32 %14, 0
  br i1 %15, label %16, label %25

16:                                               ; preds = %4
  %17 = load ptr, ptr %6, align 8
  %18 = load ptr, ptr %8, align 8
  %19 = getelementptr inbounds %"class.glslang::TParseVersions", ptr %9, i32 0, i32 5
  %20 = load i32, ptr %19, align 4
  %21 = call ptr @StageName(i32 noundef %20)
  %22 = load ptr, ptr %9, align 8
  %23 = getelementptr inbounds ptr, ptr %22, i64 43
  %24 = load ptr, ptr %23, align 8
  call void (ptr, ptr, ptr, ptr, ptr, ...) %24(ptr noundef nonnull align 8 dereferenceable(224) %9, ptr noundef nonnull align 8 dereferenceable(24) %17, ptr noundef @.str.235, ptr noundef %18, ptr noundef %21)
  br label %25

25:                                               ; preds = %16, %4
  ret void
}

; Function Attrs: mustprogress nounwind uwtable
define void @_ZN7glslang14TParseVersions12requireStageERKNS_10TSourceLocE11EShLanguagePKc(ptr noundef nonnull align 8 dereferenceable(224) %0, ptr noundef nonnull align 8 dereferenceable(24) %1, i32 noundef %2, ptr noundef %3) #0 align 2 {
  %5 = alloca ptr, align 8
  %6 = alloca ptr, align 8
  %7 = alloca i32, align 4
  %8 = alloca ptr, align 8
  store ptr %0, ptr %5, align 8
  store ptr %1, ptr %6, align 8
  store i32 %2, ptr %7, align 4
  store ptr %3, ptr %8, align 8
  %9 = load ptr, ptr %5, align 8
  %10 = load ptr, ptr %6, align 8
  %11 = load i32, ptr %7, align 4
  %12 = shl i32 1, %11
  %13 = load ptr, ptr %8, align 8
  call void @_ZN7glslang14TParseVersions12requireStageERKNS_10TSourceLocE15EShLanguageMaskPKc(ptr noundef nonnull align 8 dereferenceable(224) %9, ptr noundef nonnull align 8 dereferenceable(24) %10, i32 noundef %12, ptr noundef %13)
  ret void
}