; Function Attrs: mustprogress nounwind uwtable
define void @_ZN7glslang14TParseVersions12requireStageERKNS_10TSourceLocE11EShLanguagePKc(ptr noundef nonnull align 8 dereferenceable(224) %0, ptr noundef nonnull align 8 dereferenceable(24) %1, i32 noundef %2, ptr noundef %3) local_unnamed_addr #0 align 2 {
  %5 = shl nuw i32 1, %2
  %6 = getelementptr inbounds i8, ptr %0, i64 28
  %7 = load i32, ptr %6, align 4
  %8 = shl nuw i32 1, %7
  %9 = and i32 %8, %5
  %10 = icmp eq i32 %9, 0
  br i1 %10, label %11, label %_ZN7glslang14TParseVersions12requireStageERKNS_10TSourceLocE15EShLanguageMaskPKc.exit

11:                                               ; preds = %4
  %12 = icmp ult i32 %7, 14
  br i1 %12, label %switch.lookup, label %StageName.exit.i

switch.lookup:                                    ; preds = %11
  %13 = zext nneg i32 %7 to i64
  %switch.gep = getelementptr inbounds [14 x ptr], ptr @switch.table._ZN7glslang14TParseVersions19checkExtensionStageERKNS_10TSourceLocEPKc.1, i64 0, i64 %13
  %switch.load = load ptr, ptr %switch.gep, align 8
  br label %StageName.exit.i

StageName.exit.i:                                 ; preds = %11, %switch.lookup
  %.0.i.i = phi ptr [ %switch.load, %switch.lookup ], [ @.str.234, %11 ]
  %14 = load ptr, ptr %0, align 8
  %15 = getelementptr inbounds i8, ptr %14, i64 344
  %16 = load ptr, ptr %15, align 8
  tail call void (ptr, ptr, ptr, ptr, ptr, ...) %16(ptr noundef nonnull align 8 dereferenceable(224) %0, ptr noundef nonnull align 8 dereferenceable(24) %1, ptr noundef nonnull @.str.235, ptr noundef %3, ptr noundef nonnull %.0.i.i) #15
  br label %_ZN7glslang14TParseVersions12requireStageERKNS_10TSourceLocE15EShLanguageMaskPKc.exit

_ZN7glslang14TParseVersions12requireStageERKNS_10TSourceLocE15EShLanguageMaskPKc.exit: ; preds = %4, %StageName.exit.i
  ret void
}